target datalayout = "e-m:e-p270:32:32-p271:32:32-p272:64:64-i64:64-i128:128-f80:128-n8:16:32:64-S128"
target triple = "x86_64-pc-linux-gnu"

%struct.AudioNLMDNDSPContext = type { ptr, ptr }
%struct.AVFilterContext = type { ptr, ptr, ptr, ptr, ptr, i32, ptr, ptr, i32, ptr, ptr, i32, i32, ptr, ptr, ptr, ptr, i32, ptr, i32, i32 }
%struct.AudioNLMeansContext = type { ptr, float, i64, i64, float, i32, float, [1048576 x float], i32, i32, i32, i32, ptr, ptr, ptr, %struct.AudioNLMDNDSPContext }
%struct.AVFilterLink = type { ptr, ptr, ptr, ptr, i32, i32, i32, i32, %struct.AVRational, i32, i32, i32, %struct.AVChannelLayout, %struct.AVRational, ptr, i32, %struct.AVFilterFormatsConfig, %struct.AVFilterFormatsConfig }
%struct.AVChannelLayout = type { i32, i32, %union.anon.1, ptr }
%union.anon.1 = type { i64 }
%struct.AVRational = type { i32, i32 }
%struct.AVFilterFormatsConfig = type { ptr, ptr, ptr, ptr, ptr }
%struct.AVFrame = type { [8 x ptr], [8 x i32], ptr, i32, i32, i32, i32, i32, %struct.AVRational, i64, i64, %struct.AVRational, i32, ptr, i32, i32, [8 x ptr], ptr, i32, ptr, i32, i32, i32, i32, i32, i32, i32, i64, ptr, i32, ptr, ptr, i64, i64, i64, i64, ptr, %struct.AVChannelLayout, i64 }

; Function Attrs: inlinehint nounwind uwtable
define internal void @ff_outlink_set_status(ptr noundef %0, i32 noundef %1, i64 noundef %2) #3 {
  %4 = alloca ptr, align 8
  %5 = alloca i32, align 4
  %6 = alloca i64, align 8
  store ptr %0, ptr %4, align 8, !tbaa !41
  store i32 %1, ptr %5, align 4, !tbaa !18
  store i64 %2, ptr %6, align 8, !tbaa !14
  %7 = load ptr, ptr %4, align 8, !tbaa !41
  %8 = load i32, ptr %5, align 4, !tbaa !18
  %9 = load i64, ptr %6, align 8, !tbaa !14
  call void @ff_avfilter_link_set_in_status(ptr noundef %7, i32 noundef %8, i64 noundef %9)
  ret void
}

; Function Attrs: nounwind uwtable
define internal i32 @filter_frame(ptr noundef %0, ptr noundef %1) #0 {
  %3 = alloca i32, align 4
  %4 = alloca ptr, align 8
  %5 = alloca ptr, align 8
  %6 = alloca ptr, align 8
  %7 = alloca ptr, align 8
  %8 = alloca ptr, align 8
  %9 = alloca ptr, align 8
  %10 = alloca i32, align 4
  store ptr %0, ptr %4, align 8, !tbaa !41
  store ptr %1, ptr %5, align 8, !tbaa !44
  call void @llvm.lifetime.start.p0(i64 8, ptr %6) #9
  %11 = load ptr, ptr %4, align 8, !tbaa !41
  %12 = getelementptr inbounds nuw %struct.AVFilterLink, ptr %11, i32 0, i32 2
  %13 = load ptr, ptr %12, align 8, !tbaa !75
  store ptr %13, ptr %6, align 8, !tbaa !23
  call void @llvm.lifetime.start.p0(i64 8, ptr %7) #9
  %14 = load ptr, ptr %6, align 8, !tbaa !23
  %15 = getelementptr inbounds nuw %struct.AVFilterContext, ptr %14, i32 0, i32 7
  %16 = load ptr, ptr %15, align 8, !tbaa !43
  %17 = getelementptr inbounds ptr, ptr %16, i64 0
  %18 = load ptr, ptr %17, align 8, !tbaa !41
  store ptr %18, ptr %7, align 8, !tbaa !41
  call void @llvm.lifetime.start.p0(i64 8, ptr %8) #9
  %19 = load ptr, ptr %6, align 8, !tbaa !23
  %20 = getelementptr inbounds nuw %struct.AVFilterContext, ptr %19, i32 0, i32 9
  %21 = load ptr, ptr %20, align 8, !tbaa !25
  store ptr %21, ptr %8, align 8, !tbaa !37
  call void @llvm.lifetime.start.p0(i64 8, ptr %9) #9
  %22 = load ptr, ptr %5, align 8, !tbaa !44
  %23 = call i32 @av_frame_is_writable(ptr noundef %22)
  %24 = icmp ne i32 %23, 0
  br i1 %24, label %25, label %27

25:                                               ; preds = %2
  %26 = load ptr, ptr %5, align 8, !tbaa !44
  store ptr %26, ptr %9, align 8, !tbaa !44
  br label %42

27:                                               ; preds = %2
  %28 = load ptr, ptr %7, align 8, !tbaa !41
  %29 = load ptr, ptr %5, align 8, !tbaa !44
  %30 = getelementptr inbounds nuw %struct.AVFrame, ptr %29, i32 0, i32 5
  %31 = load i32, ptr %30, align 8, !tbaa !60
  %32 = call ptr @ff_get_audio_buffer(ptr noundef %28, i32 noundef %31)
  store ptr %32, ptr %9, align 8, !tbaa !44
  %33 = load ptr, ptr %9, align 8, !tbaa !44
  %34 = icmp ne ptr %33, null
  br i1 %34, label %36, label %35

35:                                               ; preds = %27
  call void @av_frame_free(ptr noundef %5)
  store i32 -12, ptr %3, align 4
  store i32 1, ptr %10, align 4
  br label %61

36:                                               ; preds = %27
  %37 = load ptr, ptr %5, align 8, !tbaa !44
  %38 = getelementptr inbounds nuw %struct.AVFrame, ptr %37, i32 0, i32 9
  %39 = load i64, ptr %38, align 8, !tbaa !76
  %40 = load ptr, ptr %9, align 8, !tbaa !44
  %41 = getelementptr inbounds nuw %struct.AVFrame, ptr %40, i32 0, i32 9
  store i64 %39, ptr %41, align 8, !tbaa !76
  br label %42

42:                                               ; preds = %36, %25
  %43 = load ptr, ptr %5, align 8, !tbaa !44
  %44 = load ptr, ptr %8, align 8, !tbaa !37
  %45 = getelementptr inbounds nuw %struct.AudioNLMeansContext, ptr %44, i32 0, i32 12
  store ptr %43, ptr %45, align 8, !tbaa !77
  %46 = load ptr, ptr %6, align 8, !tbaa !23
  %47 = load ptr, ptr %9, align 8, !tbaa !44
  %48 = load ptr, ptr %4, align 8, !tbaa !41
  %49 = getelementptr inbounds nuw %struct.AVFilterLink, ptr %48, i32 0, i32 12
  %50 = getelementptr inbounds nuw %struct.AVChannelLayout, ptr %49, i32 0, i32 1
  %51 = load i32, ptr %50, align 4, !tbaa !78
  %52 = call i32 @ff_filter_execute(ptr noundef %46, ptr noundef @filter_channel, ptr noundef %47, ptr noundef null, i32 noundef %51)
  %53 = load ptr, ptr %9, align 8, !tbaa !44
  %54 = load ptr, ptr %5, align 8, !tbaa !44
  %55 = icmp ne ptr %53, %54
  br i1 %55, label %56, label %57

56:                                               ; preds = %42
  call void @av_frame_free(ptr noundef %5)
  br label %57

57:                                               ; preds = %56, %42
  %58 = load ptr, ptr %7, align 8, !tbaa !41
  %59 = load ptr, ptr %9, align 8, !tbaa !44
  %60 = call i32 @ff_filter_frame(ptr noundef %58, ptr noundef %59)
  store i32 %60, ptr %3, align 4
  store i32 1, ptr %10, align 4
  br label %61

61:                                               ; preds = %57, %35
  call void @llvm.lifetime.end.p0(i64 8, ptr %9) #9
  call void @llvm.lifetime.end.p0(i64 8, ptr %8) #9
  call void @llvm.lifetime.end.p0(i64 8, ptr %7) #9
  call void @llvm.lifetime.end.p0(i64 8, ptr %6) #9
  %62 = load i32, ptr %3, align 4
  ret i32 %62
}

; Function Attrs: nounwind uwtable
define internal i32 @activate(ptr noundef %0) #0 {
  %2 = alloca i32, align 4
  %3 = alloca ptr, align 8
  %4 = alloca ptr, align 8
  %5 = alloca ptr, align 8
  %6 = alloca ptr, align 8
  %7 = alloca ptr, align 8
  %8 = alloca i32, align 4
  %9 = alloca i32, align 4
  %10 = alloca i64, align 8
  %11 = alloca i32, align 4
  %12 = alloca i32, align 4
  store ptr %0, ptr %3, align 8, !tbaa !23
  call void @llvm.lifetime.start.p0(i64 8, ptr %4) #9
  %13 = load ptr, ptr %3, align 8, !tbaa !23
  %14 = getelementptr inbounds nuw %struct.AVFilterContext, ptr %13, i32 0, i32 4
  %15 = load ptr, ptr %14, align 8, !tbaa !40
  %16 = getelementptr inbounds ptr, ptr %15, i64 0
  %17 = load ptr, ptr %16, align 8, !tbaa !41
  store ptr %17, ptr %4, align 8, !tbaa !41
  call void @llvm.lifetime.start.p0(i64 8, ptr %5) #9
  %18 = load ptr, ptr %3, align 8, !tbaa !23
  %19 = getelementptr inbounds nuw %struct.AVFilterContext, ptr %18, i32 0, i32 7
  %20 = load ptr, ptr %19, align 8, !tbaa !43
  %21 = getelementptr inbounds ptr, ptr %20, i64 0
  %22 = load ptr, ptr %21, align 8, !tbaa !41
  store ptr %22, ptr %5, align 8, !tbaa !41
  call void @llvm.lifetime.start.p0(i64 8, ptr %6) #9
  %23 = load ptr, ptr %3, align 8, !tbaa !23
  %24 = getelementptr inbounds nuw %struct.AVFilterContext, ptr %23, i32 0, i32 9
  %25 = load ptr, ptr %24, align 8, !tbaa !25
  store ptr %25, ptr %6, align 8, !tbaa !37
  call void @llvm.lifetime.start.p0(i64 8, ptr %7) #9
  store ptr null, ptr %7, align 8, !tbaa !44
  call void @llvm.lifetime.start.p0(i64 4, ptr %8) #9
  store i32 0, ptr %8, align 4, !tbaa !18
  call void @llvm.lifetime.start.p0(i64 4, ptr %9) #9
  call void @llvm.lifetime.start.p0(i64 8, ptr %10) #9
  br label %26

26:                                               ; preds = %1
  call void @llvm.lifetime.start.p0(i64 4, ptr %11) #9
  %27 = load ptr, ptr %5, align 8, !tbaa !41
  %28 = call i32 @ff_outlink_get_status(ptr noundef %27)
  store i32 %28, ptr %11, align 4, !tbaa !18
  %29 = load i32, ptr %11, align 4, !tbaa !18
  %30 = icmp ne i32 %29, 0
  br i1 %30, label %31, label %34

31:                                               ; preds = %26
  %32 = load ptr, ptr %4, align 8, !tbaa !41
  %33 = load i32, ptr %11, align 4, !tbaa !18
  call void @ff_inlink_set_status(ptr noundef %32, i32 noundef %33)
  store i32 0, ptr %2, align 4
  store i32 1, ptr %12, align 4
  br label %35

34:                                               ; preds = %26
  store i32 0, ptr %12, align 4
  br label %35

35:                                               ; preds = %34, %31
  call void @llvm.lifetime.end.p0(i64 4, ptr %11) #9
  %36 = load i32, ptr %12, align 4
  switch i32 %36, label %84 [
    i32 0, label %37
  ]

37:                                               ; preds = %35
  br label %38

38:                                               ; preds = %37
  br label %39

39:                                               ; preds = %38
  %40 = load ptr, ptr %4, align 8, !tbaa !41
  %41 = load ptr, ptr %6, align 8, !tbaa !37
  %42 = getelementptr inbounds nuw %struct.AudioNLMeansContext, ptr %41, i32 0, i32 11
  %43 = load i32, ptr %42, align 8, !tbaa !46
  %44 = load ptr, ptr %6, align 8, !tbaa !37
  %45 = getelementptr inbounds nuw %struct.AudioNLMeansContext, ptr %44, i32 0, i32 11
  %46 = load i32, ptr %45, align 8, !tbaa !46
  %47 = call i32 @ff_inlink_consume_samples(ptr noundef %40, i32 noundef %43, i32 noundef %46, ptr noundef %7)
  store i32 %47, ptr %8, align 4, !tbaa !18
  %48 = load i32, ptr %8, align 4, !tbaa !18
  %49 = icmp slt i32 %48, 0
  br i1 %49, label %50, label %52

50:                                               ; preds = %39
  %51 = load i32, ptr %8, align 4, !tbaa !18
  store i32 %51, ptr %2, align 4
  store i32 1, ptr %12, align 4
  br label %84

52:                                               ; preds = %39
  %53 = load i32, ptr %8, align 4, !tbaa !18
  %54 = icmp sgt i32 %53, 0
  br i1 %54, label %55, label %59

55:                                               ; preds = %52
  %56 = load ptr, ptr %4, align 8, !tbaa !41
  %57 = load ptr, ptr %7, align 8, !tbaa !44
  %58 = call i32 @filter_frame(ptr noundef %56, ptr noundef %57)
  store i32 %58, ptr %2, align 4
  store i32 1, ptr %12, align 4
  br label %84

59:                                               ; preds = %52
  %60 = load ptr, ptr %4, align 8, !tbaa !41
  %61 = call i32 @ff_inlink_acknowledge_status(ptr noundef %60, ptr noundef %9, ptr noundef %10)
  %62 = icmp ne i32 %61, 0
  br i1 %62, label %63, label %67

63:                                               ; preds = %59
  %64 = load ptr, ptr %5, align 8, !tbaa !41
  %65 = load i32, ptr %9, align 4, !tbaa !18
  %66 = load i64, ptr %10, align 8, !tbaa !14
  call void @ff_outlink_set_status(ptr noundef %64, i32 noundef %65, i64 noundef %66)
  store i32 0, ptr %2, align 4
  store i32 1, ptr %12, align 4
  br label %84

67:                                               ; preds = %59
  %68 = load ptr, ptr %4, align 8, !tbaa !41
  %69 = call i32 @ff_inlink_queued_samples(ptr noundef %68)
  %70 = load ptr, ptr %6, align 8, !tbaa !37
  %71 = getelementptr inbounds nuw %struct.AudioNLMeansContext, ptr %70, i32 0, i32 11
  %72 = load i32, ptr %71, align 8, !tbaa !46
  %73 = icmp sge i32 %69, %72
  br i1 %73, label %74, label %76

74:                                               ; preds = %67
  %75 = load ptr, ptr %3, align 8, !tbaa !23
  call void @ff_filter_set_ready(ptr noundef %75, i32 noundef 10)
  br label %83

76:                                               ; preds = %67
  %77 = load ptr, ptr %5, align 8, !tbaa !41
  %78 = call i32 @ff_outlink_frame_wanted(ptr noundef %77)
  %79 = icmp ne i32 %78, 0
  br i1 %79, label %80, label %82

80:                                               ; preds = %76
  %81 = load ptr, ptr %4, align 8, !tbaa !41
  call void @ff_inlink_request_frame(ptr noundef %81)
  br label %82

82:                                               ; preds = %80, %76
  br label %83

83:                                               ; preds = %82, %74
  store i32 0, ptr %2, align 4
  store i32 1, ptr %12, align 4
  br label %84

84:                                               ; preds = %83, %63, %55, %50, %35
  call void @llvm.lifetime.end.p0(i64 8, ptr %10) #9
  call void @llvm.lifetime.end.p0(i64 4, ptr %9) #9
  call void @llvm.lifetime.end.p0(i64 4, ptr %8) #9
  call void @llvm.lifetime.end.p0(i64 8, ptr %7) #9
  call void @llvm.lifetime.end.p0(i64 8, ptr %6) #9
  call void @llvm.lifetime.end.p0(i64 8, ptr %5) #9
  call void @llvm.lifetime.end.p0(i64 8, ptr %4) #9
  %85 = load i32, ptr %2, align 4
  ret i32 %85
}