; Function Attrs: nounwind uwtable
define internal i32 @activate(ptr noundef %0) #4 {
  %2 = alloca ptr, align 8
  %3 = alloca ptr, align 8
  %4 = alloca i32, align 4
  %5 = alloca i64, align 8
  %6 = getelementptr inbounds nuw i8, ptr %0, i64 32
  %7 = load ptr, ptr %6, align 8, !tbaa !28
  %8 = load ptr, ptr %7, align 8, !tbaa !29
  %9 = getelementptr inbounds nuw i8, ptr %0, i64 56
  %10 = load ptr, ptr %9, align 8, !tbaa !31
  %11 = load ptr, ptr %10, align 8, !tbaa !29
  %12 = getelementptr inbounds nuw i8, ptr %0, i64 72
  %13 = load ptr, ptr %12, align 8, !tbaa !15
  call void @llvm.lifetime.start.p0(i64 8, ptr nonnull %3) #12
  store ptr null, ptr %3, align 8, !tbaa !32
  call void @llvm.lifetime.start.p0(i64 4, ptr nonnull %4) #12
  call void @llvm.lifetime.start.p0(i64 8, ptr nonnull %5) #12
  %14 = tail call i32 @ff_outlink_get_status(ptr noundef %11) #12
  %.not = icmp eq i32 %14, 0
  br i1 %.not, label %.critedge, label %15

15:                                               ; preds = %1
  tail call void @ff_inlink_set_status(ptr noundef %8, i32 noundef %14) #12
  br label %60

.critedge:                                        ; preds = %1
  %16 = getelementptr inbounds nuw i8, ptr %13, i64 4194360
  %17 = load i32, ptr %16, align 8, !tbaa !34
  %18 = call i32 @ff_inlink_consume_samples(ptr noundef %8, i32 noundef %17, i32 noundef %17, ptr noundef nonnull %3) #12
  %19 = icmp slt i32 %18, 0
  br i1 %19, label %60, label %20

20:                                               ; preds = %.critedge
  %.not26 = icmp eq i32 %18, 0
  br i1 %.not26, label %48, label %21

21:                                               ; preds = %20
  %22 = load ptr, ptr %3, align 8, !tbaa !32
  call void @llvm.lifetime.start.p0(i64 8, ptr nonnull %2)
  store ptr %22, ptr %2, align 8, !tbaa !32
  %23 = getelementptr inbounds nuw i8, ptr %8, i64 16
  %24 = load ptr, ptr %23, align 8, !tbaa !37
  %25 = getelementptr inbounds nuw i8, ptr %24, i64 56
  %26 = load ptr, ptr %25, align 8, !tbaa !31
  %27 = load ptr, ptr %26, align 8, !tbaa !29
  %28 = getelementptr inbounds nuw i8, ptr %24, i64 72
  %29 = load ptr, ptr %28, align 8, !tbaa !15
  %30 = call i32 @av_frame_is_writable(ptr noundef %22) #12
  %.not.i = icmp eq i32 %30, 0
  br i1 %.not.i, label %31, label %40

31:                                               ; preds = %21
  %32 = getelementptr inbounds nuw i8, ptr %22, i64 112
  %33 = load i32, ptr %32, align 8, !tbaa !46
  %34 = call ptr @ff_get_audio_buffer(ptr noundef %27, i32 noundef %33) #12
  %.not15.i = icmp eq ptr %34, null
  br i1 %.not15.i, label %35, label %36

35:                                               ; preds = %31
  call void @av_frame_free(ptr noundef nonnull %2) #12
  br label %filter_frame.exit

36:                                               ; preds = %31
  %37 = getelementptr inbounds nuw i8, ptr %22, i64 136
  %38 = load i64, ptr %37, align 8, !tbaa !51
  %39 = getelementptr inbounds nuw i8, ptr %34, i64 136
  store i64 %38, ptr %39, align 8, !tbaa !51
  br label %40

40:                                               ; preds = %36, %21
  %.0.i = phi ptr [ %34, %36 ], [ %22, %21 ]
  %41 = getelementptr inbounds nuw i8, ptr %29, i64 4194368
  store ptr %22, ptr %41, align 8, !tbaa !52
  %42 = getelementptr inbounds nuw i8, ptr %8, i64 76
  %43 = load i32, ptr %42, align 4, !tbaa !53
  %44 = call i32 @ff_filter_execute(ptr noundef nonnull %24, ptr noundef nonnull @filter_channel, ptr noundef %.0.i, ptr noundef null, i32 noundef %43) #12
  %.not16.i = icmp eq ptr %.0.i, %22
  br i1 %.not16.i, label %46, label %45

45:                                               ; preds = %40
  call void @av_frame_free(ptr noundef nonnull %2) #12
  br label %46

46:                                               ; preds = %45, %40
  %47 = call i32 @ff_filter_frame(ptr noundef %27, ptr noundef %.0.i) #12
  br label %filter_frame.exit

filter_frame.exit:                                ; preds = %35, %46
  %.013.i = phi i32 [ %47, %46 ], [ -12, %35 ]
  call void @llvm.lifetime.end.p0(i64 8, ptr nonnull %2)
  br label %60

48:                                               ; preds = %20
  %49 = call i32 @ff_inlink_acknowledge_status(ptr noundef %8, ptr noundef nonnull %4, ptr noundef nonnull %5) #12
  %.not27 = icmp eq i32 %49, 0
  br i1 %.not27, label %53, label %50

50:                                               ; preds = %48
  %51 = load i32, ptr %4, align 4, !tbaa !54
  %52 = load i64, ptr %5, align 8, !tbaa !55
  call void @ff_avfilter_link_set_in_status(ptr noundef %11, i32 noundef %51, i64 noundef %52) #12
  br label %60

53:                                               ; preds = %48
  %54 = call i32 @ff_inlink_queued_samples(ptr noundef %8) #12
  %55 = load i32, ptr %16, align 8, !tbaa !34
  %.not28 = icmp slt i32 %54, %55
  br i1 %.not28, label %57, label %56

56:                                               ; preds = %53
  call void @ff_filter_set_ready(ptr noundef nonnull %0, i32 noundef 10) #12
  br label %60

57:                                               ; preds = %53
  %58 = call i32 @ff_outlink_frame_wanted(ptr noundef %11) #12
  %.not29 = icmp eq i32 %58, 0
  br i1 %.not29, label %60, label %59

59:                                               ; preds = %57
  call void @ff_inlink_request_frame(ptr noundef %8) #12
  br label %60

60:                                               ; preds = %15, %56, %59, %57, %.critedge, %50, %filter_frame.exit
  %.1 = phi i32 [ %.013.i, %filter_frame.exit ], [ 0, %50 ], [ 0, %15 ], [ %18, %.critedge ], [ 0, %57 ], [ 0, %59 ], [ 0, %56 ]
  call void @llvm.lifetime.end.p0(i64 8, ptr nonnull %5) #12
  call void @llvm.lifetime.end.p0(i64 4, ptr nonnull %4) #12
  call void @llvm.lifetime.end.p0(i64 8, ptr nonnull %3) #12
  ret i32 %.1
}